; Function Attrs: mustprogress uwtable
define hidden void @_ZN4cvc58internal6theory12SharedSolver12sendConflictENS0_9TrustNodeENS1_11InferenceIdE(ptr nocapture noundef nonnull readonly align 8 dereferenceable(976) %this, ptr nocapture noundef readonly %trn, i32 noundef %id) local_unnamed_addr #3 align 2 personality ptr @__gxx_personality_v0 {
entry:
  %agg.tmp = alloca %"class.cvc5::internal::TrustNode", align 8
  %d_im = getelementptr inbounds i8, ptr %this, i64 968
  %0 = load ptr, ptr %d_im, align 8
  %1 = load i32, ptr %trn, align 8
  store i32 %1, ptr %agg.tmp, align 8
  %d_proven.i = getelementptr inbounds i8, ptr %agg.tmp, i64 8
  %d_proven3.i = getelementptr inbounds i8, ptr %trn, i64 8
  %2 = load ptr, ptr %d_proven3.i, align 8
  store ptr %2, ptr %d_proven.i, align 8
  %bf.load.i.i.i = load i64, ptr %2, align 8
  %bf.lshr.i.i.i = lshr i64 %bf.load.i.i.i, 40
  %3 = trunc i64 %bf.lshr.i.i.i to i32
  %bf.cast.i.i.i = and i32 %3, 1048575
  %cmp.i.i.i = icmp ult i32 %bf.cast.i.i.i, 1048574
  br i1 %cmp.i.i.i, label %if.then.i.i.i, label %if.else.i.i.i

if.then.i.i.i:                                    ; preds = %entry
  %bf.value.i.i.i = add i64 %bf.load.i.i.i, 1099511627776
  %bf.shl.i.i.i = and i64 %bf.value.i.i.i, 1152920405095219200
  %bf.clear7.i.i.i = and i64 %bf.load.i.i.i, -1152920405095219201
  %bf.set.i.i.i = or disjoint i64 %bf.shl.i.i.i, %bf.clear7.i.i.i
  store i64 %bf.set.i.i.i, ptr %2, align 8
  br label %_ZN4cvc58internal9TrustNodeC2ERKS1_.exit

if.else.i.i.i:                                    ; preds = %entry
  %cmp12.i.i.i = icmp eq i32 %bf.cast.i.i.i, 1048574
  br i1 %cmp12.i.i.i, label %if.then13.i.i.i, label %_ZN4cvc58internal9TrustNodeC2ERKS1_.exit

if.then13.i.i.i:                                  ; preds = %if.else.i.i.i
  %bf.set23.i.i.i = or i64 %bf.load.i.i.i, 1152920405095219200
  store i64 %bf.set23.i.i.i, ptr %2, align 8
  tail call void @_ZN4cvc58internal4expr9NodeValue20markRefCountMaxedOutEv(ptr noundef nonnull align 8 dereferenceable(16) %2)
  br label %_ZN4cvc58internal9TrustNodeC2ERKS1_.exit

_ZN4cvc58internal9TrustNodeC2ERKS1_.exit:         ; preds = %if.then.i.i.i, %if.else.i.i.i, %if.then13.i.i.i
  %d_gen.i = getelementptr inbounds i8, ptr %agg.tmp, i64 16
  %d_gen4.i = getelementptr inbounds i8, ptr %trn, i64 16
  %4 = load ptr, ptr %d_gen4.i, align 8
  store ptr %4, ptr %d_gen.i, align 8
  invoke void @_ZN4cvc58internal6theory22TheoryInferenceManager15trustedConflictENS0_9TrustNodeENS1_11InferenceIdE(ptr noundef nonnull align 8 dereferenceable(256) %0, ptr noundef nonnull %agg.tmp, i32 noundef %id)
          to label %invoke.cont unwind label %lpad

invoke.cont:                                      ; preds = %_ZN4cvc58internal9TrustNodeC2ERKS1_.exit
  %5 = load ptr, ptr %d_proven.i, align 8
  %bf.load.i.i.i2 = load i64, ptr %5, align 8
  %6 = and i64 %bf.load.i.i.i2, 1152920405095219200
  %cmp.not.i.i.i = icmp eq i64 %6, 1152920405095219200
  br i1 %cmp.not.i.i.i, label %_ZN4cvc58internal9TrustNodeD2Ev.exit, label %if.then.i.i.i3

if.then.i.i.i3:                                   ; preds = %invoke.cont
  %bf.value.i.i.i4 = add i64 %bf.load.i.i.i2, 1152920405095219200
  %bf.shl.i.i.i5 = and i64 %bf.value.i.i.i4, 1152920405095219200
  %bf.clear7.i.i.i6 = and i64 %bf.load.i.i.i2, -1152920405095219201
  %bf.set.i.i.i7 = or disjoint i64 %bf.shl.i.i.i5, %bf.clear7.i.i.i6
  store i64 %bf.set.i.i.i7, ptr %5, align 8
  %cmp12.i.i.i8 = icmp eq i64 %bf.shl.i.i.i5, 0
  br i1 %cmp12.i.i.i8, label %if.then13.i.i.i9, label %_ZN4cvc58internal9TrustNodeD2Ev.exit

if.then13.i.i.i9:                                 ; preds = %if.then.i.i.i3
  invoke void @_ZN4cvc58internal4expr9NodeValue15markForDeletionEv(ptr noundef nonnull align 8 dereferenceable(16) %5)
          to label %_ZN4cvc58internal9TrustNodeD2Ev.exit unwind label %terminate.lpad.i.i

terminate.lpad.i.i:                               ; preds = %if.then13.i.i.i9
  %7 = landingpad { ptr, i32 }
          catch ptr null
  %8 = extractvalue { ptr, i32 } %7, 0
  call void @__clang_call_terminate(ptr %8) #20
  unreachable

_ZN4cvc58internal9TrustNodeD2Ev.exit:             ; preds = %invoke.cont, %if.then.i.i.i3, %if.then13.i.i.i9
  ret void

lpad:                                             ; preds = %_ZN4cvc58internal9TrustNodeC2ERKS1_.exit
  %9 = landingpad { ptr, i32 }
          cleanup
  call void @_ZN4cvc58internal9TrustNodeD2Ev(ptr noundef nonnull align 8 dereferenceable(24) %agg.tmp) #18
  resume { ptr, i32 } %9
}